; Function Attrs: nounwind uwtable
define noalias noundef nonnull ptr @l_Lean_withTraceNode___at_Lean_Meta_SynthInstance_newSubgoal___spec__8___lambda__3___boxed(ptr noundef readonly captures(none) %0) local_unnamed_addr #1 {
  %2 = load ptr, ptr %0, align 8, !tbaa !9
  %3 = getelementptr inbounds nuw i8, ptr %0, i64 8
  %4 = load ptr, ptr %3, align 8, !tbaa !9
  %5 = getelementptr inbounds nuw i8, ptr %0, i64 16
  %6 = load ptr, ptr %5, align 8, !tbaa !9
  %7 = getelementptr inbounds nuw i8, ptr %0, i64 24
  %8 = load ptr, ptr %7, align 8, !tbaa !9
  %9 = getelementptr inbounds nuw i8, ptr %0, i64 32
  %10 = load ptr, ptr %9, align 8, !tbaa !9
  %11 = getelementptr inbounds nuw i8, ptr %0, i64 40
  %12 = load ptr, ptr %11, align 8, !tbaa !9
  %13 = getelementptr inbounds nuw i8, ptr %0, i64 48
  %14 = load ptr, ptr %13, align 8, !tbaa !9
  %15 = getelementptr inbounds nuw i8, ptr %0, i64 56
  %16 = load ptr, ptr %15, align 8, !tbaa !9
  %17 = getelementptr inbounds nuw i8, ptr %0, i64 64
  %18 = load ptr, ptr %17, align 8, !tbaa !9
  %19 = getelementptr inbounds nuw i8, ptr %0, i64 72
  %20 = load ptr, ptr %19, align 8, !tbaa !9
  %21 = getelementptr inbounds nuw i8, ptr %0, i64 80
  %22 = load ptr, ptr %21, align 8, !tbaa !9
  %23 = getelementptr inbounds nuw i8, ptr %0, i64 88
  %24 = load ptr, ptr %23, align 8, !tbaa !9
  %25 = getelementptr inbounds nuw i8, ptr %0, i64 96
  %26 = load ptr, ptr %25, align 8, !tbaa !9
  %27 = getelementptr inbounds nuw i8, ptr %0, i64 104
  %28 = load ptr, ptr %27, align 8, !tbaa !9
  %29 = getelementptr inbounds nuw i8, ptr %0, i64 112
  %30 = load ptr, ptr %29, align 8, !tbaa !9
  %31 = getelementptr inbounds nuw i8, ptr %0, i64 120
  %32 = load ptr, ptr %31, align 8, !tbaa !9
  %33 = getelementptr inbounds nuw i8, ptr %0, i64 128
  %34 = load ptr, ptr %33, align 8, !tbaa !9
  %35 = ptrtoint ptr %4 to i64
  %36 = lshr i64 %35, 1
  %37 = trunc i64 %36 to i8
  %38 = and i64 %35, 1
  %.not = icmp eq i64 %38, 0
  br i1 %.not, label %39, label %lean_dec.exit46

39:                                               ; preds = %1
  %40 = load i32, ptr %4, align 4, !tbaa !4
  %41 = icmp sgt i32 %40, 1
  br i1 %41, label %42, label %44, !prof !11

42:                                               ; preds = %39
  %43 = add nsw i32 %40, -1
  store i32 %43, ptr %4, align 4, !tbaa !4
  br label %lean_dec.exit46

44:                                               ; preds = %39
  %.not.i = icmp eq i32 %40, 0
  br i1 %.not.i, label %lean_dec.exit46, label %45

45:                                               ; preds = %44
  tail call void @lean_dec_ref_cold(ptr noundef nonnull %4) #7
  br label %lean_dec.exit46

lean_dec.exit46:                                  ; preds = %45, %44, %42, %1
  %46 = ptrtoint ptr %12 to i64
  %47 = lshr i64 %46, 1
  %48 = trunc i64 %47 to i8
  %49 = and i64 %46, 1
  %.not56 = icmp eq i64 %49, 0
  br i1 %.not56, label %50, label %lean_dec.exit45

50:                                               ; preds = %lean_dec.exit46
  %51 = load i32, ptr %12, align 4, !tbaa !4
  %52 = icmp sgt i32 %51, 1
  br i1 %52, label %53, label %55, !prof !11

53:                                               ; preds = %50
  %54 = add nsw i32 %51, -1
  store i32 %54, ptr %12, align 4, !tbaa !4
  br label %lean_dec.exit45

55:                                               ; preds = %50
  %.not.i47 = icmp eq i32 %51, 0
  br i1 %.not.i47, label %lean_dec.exit45, label %56

56:                                               ; preds = %55
  tail call void @lean_dec_ref_cold(ptr noundef nonnull %12) #7
  br label %lean_dec.exit45

lean_dec.exit45:                                  ; preds = %56, %55, %53, %lean_dec.exit46
  %57 = getelementptr i8, ptr %14, i64 8
  %.val55 = load double, ptr %57, align 8, !tbaa !21
  %58 = ptrtoint ptr %14 to i64
  %59 = and i64 %58, 1
  %.not57 = icmp eq i64 %59, 0
  br i1 %.not57, label %60, label %lean_dec.exit44

60:                                               ; preds = %lean_dec.exit45
  %61 = load i32, ptr %14, align 4, !tbaa !4
  %62 = icmp sgt i32 %61, 1
  br i1 %62, label %63, label %65, !prof !11

63:                                               ; preds = %60
  %64 = add nsw i32 %61, -1
  store i32 %64, ptr %14, align 4, !tbaa !4
  br label %lean_dec.exit44

65:                                               ; preds = %60
  %.not.i49 = icmp eq i32 %61, 0
  br i1 %.not.i49, label %lean_dec.exit44, label %66

66:                                               ; preds = %65
  tail call void @lean_dec_ref_cold(ptr noundef nonnull %14) #7
  br label %lean_dec.exit44

lean_dec.exit44:                                  ; preds = %66, %65, %63, %lean_dec.exit45
  %67 = getelementptr i8, ptr %16, i64 8
  %.val = load double, ptr %67, align 8, !tbaa !21
  %68 = ptrtoint ptr %16 to i64
  %69 = and i64 %68, 1
  %.not58 = icmp eq i64 %69, 0
  br i1 %.not58, label %70, label %lean_dec.exit43

70:                                               ; preds = %lean_dec.exit44
  %71 = load i32, ptr %16, align 4, !tbaa !4
  %72 = icmp sgt i32 %71, 1
  br i1 %72, label %73, label %75, !prof !11

73:                                               ; preds = %70
  %74 = add nsw i32 %71, -1
  store i32 %74, ptr %16, align 4, !tbaa !4
  br label %lean_dec.exit43

75:                                               ; preds = %70
  %.not.i51 = icmp eq i32 %71, 0
  br i1 %.not.i51, label %lean_dec.exit43, label %76

76:                                               ; preds = %75
  tail call void @lean_dec_ref_cold(ptr noundef nonnull %16) #7
  br label %lean_dec.exit43

lean_dec.exit43:                                  ; preds = %76, %75, %73, %lean_dec.exit44
  %77 = tail call ptr @l_Lean_withTraceNode___at_Lean_Meta_SynthInstance_newSubgoal___spec__8___lambda__3(ptr noundef %2, i8 noundef zeroext %37, ptr noundef %6, ptr noundef %8, ptr noundef %10, i8 noundef zeroext %48, double noundef %.val55, double noundef %.val, ptr noundef %18, ptr poison, ptr noundef %22, ptr noundef %24, ptr noundef %26, ptr noundef %28, ptr noundef %30, ptr noundef %32, ptr noundef %34)
  %78 = ptrtoint ptr %20 to i64
  %79 = and i64 %78, 1
  %.not59 = icmp eq i64 %79, 0
  br i1 %.not59, label %80, label %lean_dec.exit

80:                                               ; preds = %lean_dec.exit43
  %81 = load i32, ptr %20, align 4, !tbaa !4
  %82 = icmp sgt i32 %81, 1
  br i1 %82, label %83, label %85, !prof !11

83:                                               ; preds = %80
  %84 = add nsw i32 %81, -1
  store i32 %84, ptr %20, align 4, !tbaa !4
  br label %lean_dec.exit

85:                                               ; preds = %80
  %.not.i53 = icmp eq i32 %81, 0
  br i1 %.not.i53, label %lean_dec.exit, label %86

86:                                               ; preds = %85
  tail call void @lean_dec_ref_cold(ptr noundef nonnull %20) #7
  br label %lean_dec.exit

lean_dec.exit:                                    ; preds = %86, %85, %83, %lean_dec.exit43
  ret ptr %77
}